; Function Attrs: nounwind uwtable
define internal i32 @check_protected_PKCS8_DER(ptr noundef %0, i32 noundef %1, ptr readnone captures(none) %2, ptr noundef %3, i64 noundef %4) #1 {
  %6 = alloca ptr, align 8
  call void @llvm.lifetime.start.p0(i64 8, ptr nonnull %6) #8
  store ptr %3, ptr %6, align 8, !tbaa !36
  %7 = call ptr @d2i_X509_SIG(ptr noundef null, ptr noundef nonnull %6, i64 noundef %4) #8
  %8 = call i32 @test_ptr(ptr noundef %0, i32 noundef %1, ptr noundef nonnull @.str.327, ptr noundef %7) #8
  call void @X509_SIG_free(ptr noundef %7) #8
  call void @llvm.lifetime.end.p0(i64 8, ptr nonnull %6) #8
  ret i32 %8
}